#include <math.h>
#include <stdio.h>
#include <stdlib.h>
#include <string.h>

int main()
{
	int k,i,n,j;
	double x[1000],sum,p,a;
    double S;
	scanf("%d",&k);
	for(j=0;j<k;j++)
	{
		sum=0;
		p=0;
		scanf("%d",&n);
		for(i=0;i<n;i++)
		{
			scanf("%lf",&x[i]);
			sum+=x[i];
		}
		a=(double)(sum/n);
		for(i=0;i<n;i++)
		{
			p+=(double)pow((x[i]-a),2);
		}
		p=(double)(p/n);
		S=(double)sqrt(p);
		printf("%.5f\n",S);
	}



	return 0;
}